target datalayout = "e-m:e-p270:32:32-p271:32:32-p272:64:64-i64:64-i128:128-f80:128-n8:16:32:64-S128"
target triple = "x86_64-pc-linux-gnu"

%struct._lv_iter_t = type { ptr, i32, ptr, i32, ptr, i32, ptr }

; Function Attrs: nounwind uwtable
define i32 @lv_iter_peek(ptr noundef %0, ptr noundef %1) #0 {
  %3 = alloca i32, align 4
  %4 = alloca ptr, align 8
  %5 = alloca ptr, align 8
  %6 = alloca ptr, align 8
  %7 = alloca i32, align 4
  %8 = alloca i32, align 4
  %9 = alloca i32, align 4
  %10 = alloca i32, align 4
  store ptr %0, ptr %4, align 8, !tbaa !3
  store ptr %1, ptr %5, align 8, !tbaa !3
  br label %11

11:                                               ; preds = %2
  %12 = load ptr, ptr %4, align 8, !tbaa !3
  %13 = icmp ne ptr %12, null
  br i1 %13, label %18, label %14

14:                                               ; preds = %11
  br label %15

15:                                               ; preds = %14
  br label %16

16:                                               ; preds = %15
  br label %17

17:                                               ; preds = %16, %17
  br label %17

18:                                               ; preds = %11
  br label %19

19:                                               ; preds = %18
  %20 = load ptr, ptr %4, align 8, !tbaa !3
  %21 = icmp eq ptr %20, null
  br i1 %21, label %22, label %23

22:                                               ; preds = %19
  store i32 0, ptr %3, align 4
  br label %66

23:                                               ; preds = %19
  call void @llvm.lifetime.start.p0(i64 8, ptr %6) #3
  %24 = load ptr, ptr %4, align 8, !tbaa !3
  %25 = getelementptr inbounds nuw %struct._lv_iter_t, ptr %24, i32 0, i32 4
  %26 = load ptr, ptr %25, align 8, !tbaa !15
  store ptr %26, ptr %6, align 8, !tbaa !3
  %27 = load ptr, ptr %6, align 8, !tbaa !3
  %28 = icmp eq ptr %27, null
  br i1 %28, label %29, label %30

29:                                               ; preds = %23
  store i32 0, ptr %3, align 4
  store i32 1, ptr %7, align 4
  br label %65

30:                                               ; preds = %23
  call void @llvm.lifetime.start.p0(i64 4, ptr %8) #3
  %31 = load ptr, ptr %6, align 8, !tbaa !3
  %32 = call i32 @lv_circle_buf_size(ptr noundef %31)
  store i32 %32, ptr %8, align 4, !tbaa !7
  %33 = load ptr, ptr %4, align 8, !tbaa !3
  %34 = getelementptr inbounds nuw %struct._lv_iter_t, ptr %33, i32 0, i32 5
  %35 = load i32, ptr %34, align 8, !tbaa !16
  %36 = load i32, ptr %8, align 4, !tbaa !7
  %37 = icmp uge i32 %35, %36
  br i1 %37, label %38, label %57

38:                                               ; preds = %30
  call void @llvm.lifetime.start.p0(i64 4, ptr %9) #3
  %39 = load ptr, ptr %4, align 8, !tbaa !3
  %40 = getelementptr inbounds nuw %struct._lv_iter_t, ptr %39, i32 0, i32 5
  %41 = load i32, ptr %40, align 8, !tbaa !16
  %42 = add i32 %41, 1
  %43 = load i32, ptr %8, align 4, !tbaa !7
  %44 = sub i32 %42, %43
  store i32 %44, ptr %9, align 4, !tbaa !7
  call void @llvm.lifetime.start.p0(i64 4, ptr %10) #3
  %45 = load ptr, ptr %6, align 8, !tbaa !3
  %46 = load i32, ptr %9, align 4, !tbaa !7
  %47 = load ptr, ptr %4, align 8, !tbaa !3
  %48 = call i32 @lv_circle_buf_fill(ptr noundef %45, i32 noundef %46, ptr noundef @peek_fill_cb, ptr noundef %47)
  store i32 %48, ptr %10, align 4, !tbaa !7
  %49 = load i32, ptr %10, align 4, !tbaa !7
  %50 = load i32, ptr %9, align 4, !tbaa !7
  %51 = icmp ne i32 %49, %50
  br i1 %51, label %52, label %53

52:                                               ; preds = %38
  store i32 0, ptr %3, align 4
  store i32 1, ptr %7, align 4
  br label %54

53:                                               ; preds = %38
  store i32 0, ptr %7, align 4
  br label %54

54:                                               ; preds = %53, %52
  call void @llvm.lifetime.end.p0(i64 4, ptr %10) #3
  call void @llvm.lifetime.end.p0(i64 4, ptr %9) #3
  %55 = load i32, ptr %7, align 4
  switch i32 %55, label %64 [
    i32 0, label %56
  ]

56:                                               ; preds = %54
  br label %57

57:                                               ; preds = %56, %30
  %58 = load ptr, ptr %6, align 8, !tbaa !3
  %59 = load ptr, ptr %4, align 8, !tbaa !3
  %60 = getelementptr inbounds nuw %struct._lv_iter_t, ptr %59, i32 0, i32 5
  %61 = load i32, ptr %60, align 8, !tbaa !16
  %62 = load ptr, ptr %5, align 8, !tbaa !3
  %63 = call i32 @lv_circle_buf_peek_at(ptr noundef %58, i32 noundef %61, ptr noundef %62)
  store i32 1, ptr %3, align 4
  store i32 1, ptr %7, align 4
  br label %64

64:                                               ; preds = %57, %54
  call void @llvm.lifetime.end.p0(i64 4, ptr %8) #3
  br label %65

65:                                               ; preds = %64, %29
  call void @llvm.lifetime.end.p0(i64 8, ptr %6) #3
  br label %66

66:                                               ; preds = %65, %22
  %67 = load i32, ptr %3, align 4
  ret i32 %67
}