; Function Attrs: nounwind uwtable
define range(i32 0, 2) i32 @lv_iter_peek(ptr noundef %0, ptr noundef %1) local_unnamed_addr #0 {
  %.not = icmp eq ptr %0, null
  br i1 %.not, label %.preheader, label %3

.preheader:                                       ; preds = %2, %.preheader
  br label %.preheader

3:                                                ; preds = %2
  %4 = getelementptr inbounds nuw i8, ptr %0, i64 32
  %5 = load ptr, ptr %4, align 8, !tbaa !13
  %6 = icmp eq ptr %5, null
  br i1 %6, label %17, label %7

7:                                                ; preds = %3
  %8 = tail call i32 @lv_circle_buf_size(ptr noundef nonnull %5) #4
  %9 = getelementptr inbounds nuw i8, ptr %0, i64 40
  %10 = load i32, ptr %9, align 8, !tbaa !14
  %.not23 = icmp ult i32 %10, %8
  br i1 %.not23, label %14, label %11

11:                                               ; preds = %7
  %reass.sub = sub nuw i32 %10, %8
  %12 = add i32 %reass.sub, 1
  %13 = tail call i32 @lv_circle_buf_fill(ptr noundef nonnull %5, i32 noundef %12, ptr noundef nonnull @peek_fill_cb, ptr noundef nonnull %0) #4
  %.not24 = icmp eq i32 %13, %12
  br i1 %.not24, label %._crit_edge, label %17

._crit_edge:                                      ; preds = %11
  %.pre = load i32, ptr %9, align 8, !tbaa !14
  br label %14

14:                                               ; preds = %._crit_edge, %7
  %15 = phi i32 [ %.pre, %._crit_edge ], [ %10, %7 ]
  %16 = tail call i32 @lv_circle_buf_peek_at(ptr noundef nonnull %5, i32 noundef %15, ptr noundef %1) #4
  br label %17

17:                                               ; preds = %3, %11, %14
  %.1 = phi i32 [ 0, %3 ], [ 1, %14 ], [ 0, %11 ]
  ret i32 %.1
}